; Function Attrs: mustprogress nounwind uwtable
define dso_local noundef i32 @_ZNK4llvm16DwarfCompileUnit26getDwarf5OrGNULocationAtomENS_5dwarf12LocationAtomE(ptr noundef nonnull readonly align 8 captures(none) dereferenceable(696) %0, i32 noundef %1) local_unnamed_addr #0 align 2 {
  %3 = getelementptr inbounds nuw i8, ptr %0, i64 208
  %4 = load ptr, ptr %3, align 8
  %5 = tail call noundef zeroext i16 @_ZNK4llvm10DwarfDebug15getDwarfVersionEv(ptr noundef nonnull align 8 dereferenceable(5828) %4) #23
  %6 = icmp eq i16 %5, 4
  br i1 %6, label %_ZNK4llvm16DwarfCompileUnit28useGNUAnalogForDwarf5FeatureEv.exit, label %_ZNK4llvm16DwarfCompileUnit28useGNUAnalogForDwarf5FeatureEv.exit.thread

_ZNK4llvm16DwarfCompileUnit28useGNUAnalogForDwarf5FeatureEv.exit: ; preds = %2
  %7 = load ptr, ptr %3, align 8
  %8 = getelementptr inbounds nuw i8, ptr %7, i64 5824
  %9 = load i32, ptr %8, align 8
  %.fr = freeze i32 %9
  %.not = icmp eq i32 %.fr, 2
  %spec.select = select i1 %.not, i32 %1, i32 243
  br label %_ZNK4llvm16DwarfCompileUnit28useGNUAnalogForDwarf5FeatureEv.exit.thread

_ZNK4llvm16DwarfCompileUnit28useGNUAnalogForDwarf5FeatureEv.exit.thread: ; preds = %_ZNK4llvm16DwarfCompileUnit28useGNUAnalogForDwarf5FeatureEv.exit, %2
  %10 = phi i32 [ %1, %2 ], [ %spec.select, %_ZNK4llvm16DwarfCompileUnit28useGNUAnalogForDwarf5FeatureEv.exit ]
  ret i32 %10
}